target datalayout = "e-m:e-p270:32:32-p271:32:32-p272:64:64-i64:64-i128:128-f80:128-n8:16:32:64-S128"
target triple = "x86_64-pc-linux-gnu"

%struct.HeapTupleFreeze = type { i32, i16, i16, i8, i8, i16 }

; Function Attrs: nounwind uwtable
define internal i32 @heap_log_freeze_cmp(ptr noundef %0, ptr noundef %1) #0 {
  %3 = alloca i32, align 4
  %4 = alloca ptr, align 8
  %5 = alloca ptr, align 8
  %6 = alloca ptr, align 8
  %7 = alloca ptr, align 8
  %8 = alloca i32, align 4
  store ptr %0, ptr %4, align 8
  store ptr %1, ptr %5, align 8
  call void @llvm.lifetime.start.p0(i64 8, ptr %6) #7
  %9 = load ptr, ptr %4, align 8
  store ptr %9, ptr %6, align 8
  call void @llvm.lifetime.start.p0(i64 8, ptr %7) #7
  %10 = load ptr, ptr %5, align 8
  store ptr %10, ptr %7, align 8
  %11 = load ptr, ptr %6, align 8
  %12 = getelementptr inbounds nuw %struct.HeapTupleFreeze, ptr %11, i32 0, i32 0
  %13 = load i32, ptr %12, align 4
  %14 = load ptr, ptr %7, align 8
  %15 = getelementptr inbounds nuw %struct.HeapTupleFreeze, ptr %14, i32 0, i32 0
  %16 = load i32, ptr %15, align 4
  %17 = icmp ult i32 %13, %16
  br i1 %17, label %18, label %19

18:                                               ; preds = %2
  store i32 -1, ptr %3, align 4
  store i32 1, ptr %8, align 4
  br label %122

19:                                               ; preds = %2
  %20 = load ptr, ptr %6, align 8
  %21 = getelementptr inbounds nuw %struct.HeapTupleFreeze, ptr %20, i32 0, i32 0
  %22 = load i32, ptr %21, align 4
  %23 = load ptr, ptr %7, align 8
  %24 = getelementptr inbounds nuw %struct.HeapTupleFreeze, ptr %23, i32 0, i32 0
  %25 = load i32, ptr %24, align 4
  %26 = icmp ugt i32 %22, %25
  br i1 %26, label %27, label %28

27:                                               ; preds = %19
  store i32 1, ptr %3, align 4
  store i32 1, ptr %8, align 4
  br label %122

28:                                               ; preds = %19
  br label %29

29:                                               ; preds = %28
  %30 = load ptr, ptr %6, align 8
  %31 = getelementptr inbounds nuw %struct.HeapTupleFreeze, ptr %30, i32 0, i32 1
  %32 = load i16, ptr %31, align 4
  %33 = zext i16 %32 to i32
  %34 = load ptr, ptr %7, align 8
  %35 = getelementptr inbounds nuw %struct.HeapTupleFreeze, ptr %34, i32 0, i32 1
  %36 = load i16, ptr %35, align 4
  %37 = zext i16 %36 to i32
  %38 = icmp slt i32 %33, %37
  br i1 %38, label %39, label %40

39:                                               ; preds = %29
  store i32 -1, ptr %3, align 4
  store i32 1, ptr %8, align 4
  br label %122

40:                                               ; preds = %29
  %41 = load ptr, ptr %6, align 8
  %42 = getelementptr inbounds nuw %struct.HeapTupleFreeze, ptr %41, i32 0, i32 1
  %43 = load i16, ptr %42, align 4
  %44 = zext i16 %43 to i32
  %45 = load ptr, ptr %7, align 8
  %46 = getelementptr inbounds nuw %struct.HeapTupleFreeze, ptr %45, i32 0, i32 1
  %47 = load i16, ptr %46, align 4
  %48 = zext i16 %47 to i32
  %49 = icmp sgt i32 %44, %48
  br i1 %49, label %50, label %51

50:                                               ; preds = %40
  store i32 1, ptr %3, align 4
  store i32 1, ptr %8, align 4
  br label %122

51:                                               ; preds = %40
  br label %52

52:                                               ; preds = %51
  %53 = load ptr, ptr %6, align 8
  %54 = getelementptr inbounds nuw %struct.HeapTupleFreeze, ptr %53, i32 0, i32 2
  %55 = load i16, ptr %54, align 2
  %56 = zext i16 %55 to i32
  %57 = load ptr, ptr %7, align 8
  %58 = getelementptr inbounds nuw %struct.HeapTupleFreeze, ptr %57, i32 0, i32 2
  %59 = load i16, ptr %58, align 2
  %60 = zext i16 %59 to i32
  %61 = icmp slt i32 %56, %60
  br i1 %61, label %62, label %63

62:                                               ; preds = %52
  store i32 -1, ptr %3, align 4
  store i32 1, ptr %8, align 4
  br label %122

63:                                               ; preds = %52
  %64 = load ptr, ptr %6, align 8
  %65 = getelementptr inbounds nuw %struct.HeapTupleFreeze, ptr %64, i32 0, i32 2
  %66 = load i16, ptr %65, align 2
  %67 = zext i16 %66 to i32
  %68 = load ptr, ptr %7, align 8
  %69 = getelementptr inbounds nuw %struct.HeapTupleFreeze, ptr %68, i32 0, i32 2
  %70 = load i16, ptr %69, align 2
  %71 = zext i16 %70 to i32
  %72 = icmp sgt i32 %67, %71
  br i1 %72, label %73, label %74

73:                                               ; preds = %63
  store i32 1, ptr %3, align 4
  store i32 1, ptr %8, align 4
  br label %122

74:                                               ; preds = %63
  br label %75

75:                                               ; preds = %74
  %76 = load ptr, ptr %6, align 8
  %77 = getelementptr inbounds nuw %struct.HeapTupleFreeze, ptr %76, i32 0, i32 3
  %78 = load i8, ptr %77, align 4
  %79 = zext i8 %78 to i32
  %80 = load ptr, ptr %7, align 8
  %81 = getelementptr inbounds nuw %struct.HeapTupleFreeze, ptr %80, i32 0, i32 3
  %82 = load i8, ptr %81, align 4
  %83 = zext i8 %82 to i32
  %84 = icmp slt i32 %79, %83
  br i1 %84, label %85, label %86

85:                                               ; preds = %75
  store i32 -1, ptr %3, align 4
  store i32 1, ptr %8, align 4
  br label %122

86:                                               ; preds = %75
  %87 = load ptr, ptr %6, align 8
  %88 = getelementptr inbounds nuw %struct.HeapTupleFreeze, ptr %87, i32 0, i32 3
  %89 = load i8, ptr %88, align 4
  %90 = zext i8 %89 to i32
  %91 = load ptr, ptr %7, align 8
  %92 = getelementptr inbounds nuw %struct.HeapTupleFreeze, ptr %91, i32 0, i32 3
  %93 = load i8, ptr %92, align 4
  %94 = zext i8 %93 to i32
  %95 = icmp sgt i32 %90, %94
  br i1 %95, label %96, label %97

96:                                               ; preds = %86
  store i32 1, ptr %3, align 4
  store i32 1, ptr %8, align 4
  br label %122

97:                                               ; preds = %86
  br label %98

98:                                               ; preds = %97
  %99 = load ptr, ptr %6, align 8
  %100 = getelementptr inbounds nuw %struct.HeapTupleFreeze, ptr %99, i32 0, i32 5
  %101 = load i16, ptr %100, align 2
  %102 = zext i16 %101 to i32
  %103 = load ptr, ptr %7, align 8
  %104 = getelementptr inbounds nuw %struct.HeapTupleFreeze, ptr %103, i32 0, i32 5
  %105 = load i16, ptr %104, align 2
  %106 = zext i16 %105 to i32
  %107 = icmp slt i32 %102, %106
  br i1 %107, label %108, label %109

108:                                              ; preds = %98
  store i32 -1, ptr %3, align 4
  store i32 1, ptr %8, align 4
  br label %122

109:                                              ; preds = %98
  %110 = load ptr, ptr %6, align 8
  %111 = getelementptr inbounds nuw %struct.HeapTupleFreeze, ptr %110, i32 0, i32 5
  %112 = load i16, ptr %111, align 2
  %113 = zext i16 %112 to i32
  %114 = load ptr, ptr %7, align 8
  %115 = getelementptr inbounds nuw %struct.HeapTupleFreeze, ptr %114, i32 0, i32 5
  %116 = load i16, ptr %115, align 2
  %117 = zext i16 %116 to i32
  %118 = icmp sgt i32 %113, %117
  br i1 %118, label %119, label %120

119:                                              ; preds = %109
  store i32 1, ptr %3, align 4
  store i32 1, ptr %8, align 4
  br label %122

120:                                              ; preds = %109
  br label %121

121:                                              ; preds = %120
  store i32 0, ptr %3, align 4
  store i32 1, ptr %8, align 4
  br label %122

122:                                              ; preds = %121, %119, %108, %96, %85, %73, %62, %50, %39, %27, %18
  call void @llvm.lifetime.end.p0(i64 8, ptr %7) #7
  call void @llvm.lifetime.end.p0(i64 8, ptr %6) #7
  %123 = load i32, ptr %3, align 4
  ret i32 %123
}