; Function Attrs: mustprogress nofree norecurse nosync nounwind willreturn memory(argmem: read) uwtable
define internal range(i32 -1, 2) i32 @heap_log_freeze_cmp(ptr noundef readonly captures(none) %0, ptr noundef readonly captures(none) %1) #5 {
  %3 = load i32, ptr %0, align 4
  %4 = load i32, ptr %1, align 4
  %5 = icmp ult i32 %3, %4
  br i1 %5, label %40, label %6

6:                                                ; preds = %2
  %7 = icmp ugt i32 %3, %4
  br i1 %7, label %40, label %8

8:                                                ; preds = %6
  %9 = getelementptr inbounds nuw i8, ptr %0, i64 4
  %10 = load i16, ptr %9, align 4
  %11 = getelementptr inbounds nuw i8, ptr %1, i64 4
  %12 = load i16, ptr %11, align 4
  %13 = icmp ult i16 %10, %12
  br i1 %13, label %40, label %14

14:                                               ; preds = %8
  %15 = icmp ugt i16 %10, %12
  br i1 %15, label %40, label %16

16:                                               ; preds = %14
  %17 = getelementptr inbounds nuw i8, ptr %0, i64 6
  %18 = load i16, ptr %17, align 2
  %19 = getelementptr inbounds nuw i8, ptr %1, i64 6
  %20 = load i16, ptr %19, align 2
  %21 = icmp ult i16 %18, %20
  br i1 %21, label %40, label %22

22:                                               ; preds = %16
  %23 = icmp ugt i16 %18, %20
  br i1 %23, label %40, label %24

24:                                               ; preds = %22
  %25 = getelementptr inbounds nuw i8, ptr %0, i64 8
  %26 = load i8, ptr %25, align 4
  %27 = getelementptr inbounds nuw i8, ptr %1, i64 8
  %28 = load i8, ptr %27, align 4
  %29 = icmp ult i8 %26, %28
  br i1 %29, label %40, label %30

30:                                               ; preds = %24
  %31 = icmp ugt i8 %26, %28
  br i1 %31, label %40, label %32

32:                                               ; preds = %30
  %33 = getelementptr inbounds nuw i8, ptr %0, i64 10
  %34 = load i16, ptr %33, align 2
  %35 = getelementptr inbounds nuw i8, ptr %1, i64 10
  %36 = load i16, ptr %35, align 2
  %37 = icmp ult i16 %34, %36
  br i1 %37, label %40, label %38

38:                                               ; preds = %32
  %39 = icmp ugt i16 %34, %36
  %. = zext i1 %39 to i32
  br label %40

40:                                               ; preds = %38, %32, %30, %24, %22, %16, %14, %8, %6, %2
  %.0 = phi i32 [ -1, %2 ], [ 1, %6 ], [ -1, %8 ], [ 1, %14 ], [ -1, %16 ], [ 1, %22 ], [ -1, %24 ], [ 1, %30 ], [ -1, %32 ], [ %., %38 ]
  ret i32 %.0
}